
Lab03:     file format elf64-littleaarch64


Disassembly of section .init:

00000000000005b8 <_init>:
 5b8:	d503201f 	nop
 5bc:	a9bf7bfd 	stp	x29, x30, [sp, #-16]!
 5c0:	910003fd 	mov	x29, sp
 5c4:	9400002c 	bl	674 <call_weak_fn>
 5c8:	a8c17bfd 	ldp	x29, x30, [sp], #16
 5cc:	d65f03c0 	ret

Disassembly of section .plt:

00000000000005d0 <.plt>:
 5d0:	a9bf7bf0 	stp	x16, x30, [sp, #-16]!
 5d4:	f00000f0 	adrp	x16, 1f000 <__FRAME_END__+0x1e730>
 5d8:	f947fe11 	ldr	x17, [x16, #4088]
 5dc:	913fe210 	add	x16, x16, #0xff8
 5e0:	d61f0220 	br	x17
 5e4:	d503201f 	nop
 5e8:	d503201f 	nop
 5ec:	d503201f 	nop

00000000000005f0 <__libc_start_main@plt>:
 5f0:	90000110 	adrp	x16, 20000 <__libc_start_main@GLIBC_2.34>
 5f4:	f9400211 	ldr	x17, [x16]
 5f8:	91000210 	add	x16, x16, #0x0
 5fc:	d61f0220 	br	x17

0000000000000600 <__cxa_finalize@plt>:
 600:	90000110 	adrp	x16, 20000 <__libc_start_main@GLIBC_2.34>
 604:	f9400611 	ldr	x17, [x16, #8]
 608:	91002210 	add	x16, x16, #0x8
 60c:	d61f0220 	br	x17

0000000000000610 <__gmon_start__@plt>:
 610:	90000110 	adrp	x16, 20000 <__libc_start_main@GLIBC_2.34>
 614:	f9400a11 	ldr	x17, [x16, #16]
 618:	91004210 	add	x16, x16, #0x10
 61c:	d61f0220 	br	x17

0000000000000620 <abort@plt>:
 620:	90000110 	adrp	x16, 20000 <__libc_start_main@GLIBC_2.34>
 624:	f9400e11 	ldr	x17, [x16, #24]
 628:	91006210 	add	x16, x16, #0x18
 62c:	d61f0220 	br	x17

0000000000000630 <printf@plt>:
 630:	90000110 	adrp	x16, 20000 <__libc_start_main@GLIBC_2.34>
 634:	f9401211 	ldr	x17, [x16, #32]
 638:	91008210 	add	x16, x16, #0x20
 63c:	d61f0220 	br	x17

Disassembly of section .text:

0000000000000640 <_start>:
 640:	d503201f 	nop
 644:	d280001d 	mov	x29, #0x0                   	// #0
 648:	d280001e 	mov	x30, #0x0                   	// #0
 64c:	aa0003e5 	mov	x5, x0
 650:	f94003e1 	ldr	x1, [sp]
 654:	910023e2 	add	x2, sp, #0x8
 658:	910003e6 	mov	x6, sp
 65c:	f00000e0 	adrp	x0, 1f000 <__FRAME_END__+0x1e730>
 660:	f947ec00 	ldr	x0, [x0, #4056]
 664:	d2800003 	mov	x3, #0x0                   	// #0
 668:	d2800004 	mov	x4, #0x0                   	// #0
 66c:	97ffffe1 	bl	5f0 <__libc_start_main@plt>
 670:	97ffffec 	bl	620 <abort@plt>

0000000000000674 <call_weak_fn>:
 674:	f00000e0 	adrp	x0, 1f000 <__FRAME_END__+0x1e730>
 678:	f947e800 	ldr	x0, [x0, #4048]
 67c:	b4000040 	cbz	x0, 684 <call_weak_fn+0x10>
 680:	17ffffe4 	b	610 <__gmon_start__@plt>
 684:	d65f03c0 	ret
 688:	d503201f 	nop
 68c:	d503201f 	nop

0000000000000690 <deregister_tm_clones>:
 690:	90000100 	adrp	x0, 20000 <__libc_start_main@GLIBC_2.34>
 694:	9100e000 	add	x0, x0, #0x38
 698:	90000101 	adrp	x1, 20000 <__libc_start_main@GLIBC_2.34>
 69c:	9100e021 	add	x1, x1, #0x38
 6a0:	eb00003f 	cmp	x1, x0
 6a4:	540000c0 	b.eq	6bc <deregister_tm_clones+0x2c>  // b.none
 6a8:	f00000e1 	adrp	x1, 1f000 <__FRAME_END__+0x1e730>
 6ac:	f947e021 	ldr	x1, [x1, #4032]
 6b0:	b4000061 	cbz	x1, 6bc <deregister_tm_clones+0x2c>
 6b4:	aa0103f0 	mov	x16, x1
 6b8:	d61f0200 	br	x16
 6bc:	d65f03c0 	ret

00000000000006c0 <register_tm_clones>:
 6c0:	90000100 	adrp	x0, 20000 <__libc_start_main@GLIBC_2.34>
 6c4:	9100e000 	add	x0, x0, #0x38
 6c8:	90000101 	adrp	x1, 20000 <__libc_start_main@GLIBC_2.34>
 6cc:	9100e021 	add	x1, x1, #0x38
 6d0:	cb000021 	sub	x1, x1, x0
 6d4:	d37ffc22 	lsr	x2, x1, #63
 6d8:	8b810c41 	add	x1, x2, x1, asr #3
 6dc:	9341fc21 	asr	x1, x1, #1
 6e0:	b40000c1 	cbz	x1, 6f8 <register_tm_clones+0x38>
 6e4:	f00000e2 	adrp	x2, 1f000 <__FRAME_END__+0x1e730>
 6e8:	f947f042 	ldr	x2, [x2, #4064]
 6ec:	b4000062 	cbz	x2, 6f8 <register_tm_clones+0x38>
 6f0:	aa0203f0 	mov	x16, x2
 6f4:	d61f0200 	br	x16
 6f8:	d65f03c0 	ret
 6fc:	d503201f 	nop

0000000000000700 <__do_global_dtors_aux>:
 700:	a9be7bfd 	stp	x29, x30, [sp, #-32]!
 704:	910003fd 	mov	x29, sp
 708:	f9000bf3 	str	x19, [sp, #16]
 70c:	90000113 	adrp	x19, 20000 <__libc_start_main@GLIBC_2.34>
 710:	3940e260 	ldrb	w0, [x19, #56]
 714:	35000140 	cbnz	w0, 73c <__do_global_dtors_aux+0x3c>
 718:	f00000e0 	adrp	x0, 1f000 <__FRAME_END__+0x1e730>
 71c:	f947e400 	ldr	x0, [x0, #4040]
 720:	b4000080 	cbz	x0, 730 <__do_global_dtors_aux+0x30>
 724:	90000100 	adrp	x0, 20000 <__libc_start_main@GLIBC_2.34>
 728:	f9401800 	ldr	x0, [x0, #48]
 72c:	97ffffb5 	bl	600 <__cxa_finalize@plt>
 730:	97ffffd8 	bl	690 <deregister_tm_clones>
 734:	52800020 	mov	w0, #0x1                   	// #1
 738:	3900e260 	strb	w0, [x19, #56]
 73c:	f9400bf3 	ldr	x19, [sp, #16]
 740:	a8c27bfd 	ldp	x29, x30, [sp], #32
 744:	d65f03c0 	ret
 748:	d503201f 	nop
 74c:	d503201f 	nop

0000000000000750 <frame_dummy>:
 750:	17ffffdc 	b	6c0 <register_tm_clones>

0000000000000754 <main>:
 754:	a9be7bfd 	stp	x29, x30, [sp, #-32]!
 758:	910003fd 	mov	x29, sp
 75c:	d28000a1 	mov	x1, #0x5                   	// #5
 760:	d2800060 	mov	x0, #0x3                   	// #3
 764:	94000009 	bl	788 <test>
 768:	f9000fe0 	str	x0, [sp, #24]
 76c:	f9400fe1 	ldr	x1, [sp, #24]
 770:	90000000 	adrp	x0, 0 <__abi_tag-0x278>
 774:	911f2000 	add	x0, x0, #0x7c8
 778:	97ffffae 	bl	630 <printf@plt>
 77c:	52800000 	mov	w0, #0x0                   	// #0
 780:	a8c27bfd 	ldp	x29, x30, [sp], #32
 784:	d65f03c0 	ret

0000000000000788 <test>:
 788:	d2800141 	mov	x1, #0xa                   	// #10
 78c:	8b1f03e0 	add	x0, xzr, xzr

0000000000000790 <loop>:
 790:	b4000081 	cbz	x1, 7a0 <finish>
 794:	8b010000 	add	x0, x0, x1
 798:	d1000421 	sub	x1, x1, #0x1
 79c:	17fffffd 	b	790 <loop>

00000000000007a0 <finish>:
 7a0:	91019000 	add	x0, x0, #0x64
 7a4:	d61f03c0 	br	x30

Disassembly of section .fini:

00000000000007a8 <_fini>:
 7a8:	d503201f 	nop
 7ac:	a9bf7bfd 	stp	x29, x30, [sp, #-16]!
 7b0:	910003fd 	mov	x29, sp
 7b4:	a8c17bfd 	ldp	x29, x30, [sp], #16
 7b8:	d65f03c0 	ret
